Certificate:
    Data:
        Version: 3 (0x2)
        Serial Number: 1 (0x1)
        Signature Algorithm: md5WithRSAEncryption
        Issuer: C=BE, ST=Liege, L=Seraing, O=HEPL, OU=HEPL, CN=Morgan
        Validity
            Not Before: Jan 20 18:41:55 2018 GMT
            Not After : Jan 20 18:41:55 2019 GMT
        Subject: C=BE, ST=Liege, O=HEPL, OU=HEPL, CN=MasterCard
        Subject Public Key Info:
            Public Key Algorithm: rsaEncryption
            RSA Public Key: (1024 bit)
                Modulus (1024 bit):
                    00:8d:41:f1:39:49:91:1d:0e:bd:a4:9c:c3:2a:c4:
                    9d:a5:33:a5:29:e5:58:be:8e:b9:30:86:47:cb:00:
                    d0:d8:da:51:1e:ae:0b:d1:52:4d:5e:97:e9:4a:f4:
                    d3:bd:b7:ca:15:ca:80:d1:ea:c8:4e:dc:51:89:c9:
                    c6:90:71:18:a7:25:7e:ec:90:61:b0:61:2c:4d:b0:
                    9b:8c:e8:67:82:ac:76:73:f8:26:7a:27:9f:df:1f:
                    89:a3:f1:41:81:2a:5a:37:a6:75:b3:cf:e7:04:1a:
                    0c:c1:e9:af:2a:28:37:0d:6c:62:0d:f7:2a:a1:49:
                    b3:1c:85:1d:5b:77:93:97:87
                Exponent: 65537 (0x10001)
        X509v3 extensions:
            X509v3 Basic Constraints: 
                CA:FALSE
            Netscape Comment: 
                OpenSSL Generated Certificate
            X509v3 Subject Key Identifier: 
                9E:3F:B9:9B:38:FB:C5:C9:DD:88:CD:2C:F3:D2:B9:07:28:7A:9B:F0
            X509v3 Authority Key Identifier: 
                keyid:A2:AA:5C:36:EC:38:67:5D:07:81:D3:76:B8:76:74:60:2A:70:B9:37
                DirName:/C=BE/ST=Liege/L=Seraing/O=HEPL/OU=HEPL/CN=Morgan
                serial:00

    Signature Algorithm: md5WithRSAEncryption
        97:b1:bc:8f:5f:a4:05:d6:fa:7e:9c:73:16:e7:77:ff:f6:23:
        cf:e8:9b:86:2d:90:68:7a:58:76:56:5c:b2:db:67:19:fc:f0:
        1a:92:10:65:e1:e5:40:36:da:c7:c8:4e:cf:64:78:ed:2a:73:
        6e:b5:51:33:0d:36:e7:42:6d:cc:e2:31:dc:53:86:ac:dc:c6:
        ea:55:a8:00:5d:20:d3:7a:4b:8c:10:d9:c2:f6:63:ae:b8:5e:
        5a:57:92:89:b4:34:db:ae:5c:21:2b:b9:71:a7:b7:a0:12:13:
        c2:95:96:2d:5c:2f:51:d3:2b:17:e6:43:4c:aa:a2:ea:53:6c:
        6c:b7:3c:23:fe:e7:63:79:a4:74:d4:99:18:3d:f6:e9:5e:09:
        4e:ad:6f:d0:e0:f0:51:f3:3b:ff:54:70:c6:b1:33:27:46:ec:
        03:4f:24:65:3e:fe:ac:82:56:4e:7c:26:31:9a:6e:c3:cd:fc:
        80:89:ef:b2:06:12:8c:6d:07:fa:1a:b3:f4:14:5f:7c:2c:47:
        bc:e1:c6:0c:d4:3c:1d:06:67:a3:8a:71:95:63:e3:20:3b:37:
        cc:c6:6d:fd:e1:33:09:9c:43:ff:10:f7:40:5b:7b:cd:b9:67:
        58:3a:59:14:89:a9:0e:8d:30:d3:3b:0c:fc:e6:12:72:24:65:
        01:23:fa:f1
-----BEGIN CERTIFICATE-----
MIIDijCCAnKgAwIBAgIBATANBgkqhkiG9w0BAQQFADBeMQswCQYDVQQGEwJCRTEO
MAwGA1UECBMFTGllZ2UxEDAOBgNVBAcTB1NlcmFpbmcxDTALBgNVBAoTBEhFUEwx
DTALBgNVBAsTBEhFUEwxDzANBgNVBAMTBk1vcmdhbjAeFw0xODAxMjAxODQxNTVa
Fw0xOTAxMjAxODQxNTVaMFAxCzAJBgNVBAYTAkJFMQ4wDAYDVQQIEwVMaWVnZTEN
MAsGA1UEChMESEVQTDENMAsGA1UECxMESEVQTDETMBEGA1UEAxMKTWFzdGVyQ2Fy
ZDCBnzANBgkqhkiG9w0BAQEFAAOBjQAwgYkCgYEAjUHxOUmRHQ69pJzDKsSdpTOl
KeVYvo65MIZHywDQ2NpRHq4L0VJNXpfpSvTTvbfKFcqA0erITtxRicnGkHEYpyV+
7JBhsGEsTbCbjOhngqx2c/gmeief3x+Jo/FBgSpaN6Z1s8/nBBoMwemvKig3DWxi
DfcqoUmzHIUdW3eTl4cCAwEAAaOB5DCB4TAJBgNVHRMEAjAAMCwGCWCGSAGG+EIB
DQQfFh1PcGVuU1NMIEdlbmVyYXRlZCBDZXJ0aWZpY2F0ZTAdBgNVHQ4EFgQUnj+5
mzj7xcndiM0s89K5Byh6m/AwgYYGA1UdIwR/MH2AFKKqXDbsOGddB4HTdrh2dGAq
cLk3oWKkYDBeMQswCQYDVQQGEwJCRTEOMAwGA1UECBMFTGllZ2UxEDAOBgNVBAcT
B1NlcmFpbmcxDTALBgNVBAoTBEhFUEwxDTALBgNVBAsTBEhFUEwxDzANBgNVBAMT
Bk1vcmdhboIBADANBgkqhkiG9w0BAQQFAAOCAQEAl7G8j1+kBdb6fpxzFud3//Yj
z+ibhi2QaHpYdlZcsttnGfzwGpIQZeHlQDbax8hOz2R47SpzbrVRMw0250JtzOIx
3FOGrNzG6lWoAF0g03pLjBDZwvZjrrheWleSibQ0265cISu5cae3oBITwpWWLVwv
UdMrF+ZDTKqi6lNsbLc8I/7nY3mkdNSZGD326V4JTq1v0ODwUfM7/1RwxrEzJ0bs
A08kZT7+rIJWTnwmMZpuw838gInvsgYSjG0H+hqz9BRffCxHvOHGDNQ8HQZno4px
lWPjIDs3zMZt/eEzCZxD/xD3QFt7zblnWDpZFImpDo0w0zsM/OYSciRlASP68Q==
-----END CERTIFICATE-----
