Certificate:
    Data:
        Version: 3 (0x2)
        Serial Number: 2 (0x2)
        Signature Algorithm: md5WithRSAEncryption
        Issuer: C=BE, ST=Liege, L=Seraing, O=HEPL, OU=HEPL, CN=Morgan
        Validity
            Not Before: Jan 20 18:45:41 2018 GMT
            Not After : Jan 20 18:45:41 2019 GMT
        Subject: C=BE, ST=Liege, O=HEPL, OU=HEPL, CN=Morgan
        Subject Public Key Info:
            Public Key Algorithm: rsaEncryption
            RSA Public Key: (2048 bit)
                Modulus (2048 bit):
                    00:83:d0:cf:bc:cb:35:68:ab:68:46:13:43:76:be:
                    70:e5:ad:cd:d2:0d:bc:89:6d:d0:d4:a2:b2:66:af:
                    32:53:1a:f4:fe:cc:0e:ca:e0:c0:30:c7:4a:3e:46:
                    30:5c:08:1e:ca:6d:70:99:1e:24:68:f6:70:4d:da:
                    1a:dc:67:4e:89:a4:b5:b8:38:60:9f:d5:41:ba:6f:
                    ca:f8:73:e7:03:05:35:03:8c:6e:e2:8a:18:fe:e7:
                    d5:81:33:83:36:ff:52:87:34:72:1f:70:9d:0d:46:
                    1e:fc:c1:7b:54:f3:81:a0:de:27:07:fc:f1:37:04:
                    c4:88:50:96:36:4a:52:eb:de:bd:d8:8e:d1:f5:eb:
                    69:70:43:a1:2f:5b:74:fc:72:65:00:b7:ee:c1:d0:
                    69:c3:c5:a3:31:0b:5c:c3:12:02:67:18:e9:c3:57:
                    1b:2c:92:36:64:f1:ce:ae:b5:d9:ad:b1:5d:7e:eb:
                    ed:5a:cd:6c:70:51:e1:46:6d:6e:bd:0c:53:d8:f4:
                    f3:3f:dd:be:12:84:92:61:8b:74:14:f7:a1:38:a5:
                    c7:75:d2:19:01:1d:7d:61:5d:02:25:12:b8:73:9a:
                    4a:45:ce:8a:fb:46:5b:2f:a5:39:32:50:08:d3:c1:
                    2b:36:31:72:99:3b:2e:14:e5:cb:92:a1:ea:36:75:
                    5a:1f
                Exponent: 65537 (0x10001)
        X509v3 extensions:
            X509v3 Basic Constraints: 
                CA:FALSE
            Netscape Comment: 
                OpenSSL Generated Certificate
            X509v3 Subject Key Identifier: 
                CA:9F:47:E0:02:07:49:0B:1F:D4:B2:F5:96:D1:17:E8:CC:CE:BF:DF
            X509v3 Authority Key Identifier: 
                keyid:A2:AA:5C:36:EC:38:67:5D:07:81:D3:76:B8:76:74:60:2A:70:B9:37
                DirName:/C=BE/ST=Liege/L=Seraing/O=HEPL/OU=HEPL/CN=Morgan
                serial:00

    Signature Algorithm: md5WithRSAEncryption
        51:fd:67:0a:74:74:84:33:43:fc:47:c6:7f:79:5b:0a:50:1f:
        2b:44:65:b3:4f:14:dc:f1:fd:3d:f8:1d:9d:82:35:cb:cf:97:
        b9:8d:14:9e:37:b9:a1:60:1d:ba:09:58:03:ec:02:93:b1:db:
        e9:da:af:c0:91:c2:be:ba:a7:d5:63:71:cb:c0:0e:bf:ad:8e:
        c1:0c:55:c5:b6:1c:47:46:21:4a:31:be:f0:78:a7:04:6a:29:
        8c:50:df:91:4e:2c:55:14:ad:4c:c5:62:ee:a9:ac:56:ee:30:
        d3:5b:42:44:bd:2a:20:96:b9:7f:d7:23:47:8a:2c:34:b2:ec:
        32:50:61:6b:96:a1:36:fb:cd:65:66:c4:b6:b1:3f:60:96:cd:
        b2:fc:3a:ef:6a:3f:72:15:aa:b7:1e:c0:85:a9:91:ef:ad:b1:
        06:90:16:a4:28:28:23:a3:4b:f9:92:1a:17:7e:68:41:0f:a0:
        9f:7e:0f:56:1b:4d:4b:11:92:4d:81:28:c5:2b:af:9e:dd:a6:
        ed:eb:0f:d1:7b:73:16:86:12:46:55:0b:f4:a2:a1:ba:ed:4a:
        d6:77:58:94:d9:0b:ae:b1:4d:ef:78:dc:e8:89:96:ff:a6:7b:
        c2:b4:9e:7e:22:ce:91:9f:b3:5f:7a:a9:a2:df:51:fa:a7:ea:
        84:02:c2:b2
-----BEGIN CERTIFICATE-----
MIIECjCCAvKgAwIBAgIBAjANBgkqhkiG9w0BAQQFADBeMQswCQYDVQQGEwJCRTEO
MAwGA1UECBMFTGllZ2UxEDAOBgNVBAcTB1NlcmFpbmcxDTALBgNVBAoTBEhFUEwx
DTALBgNVBAsTBEhFUEwxDzANBgNVBAMTBk1vcmdhbjAeFw0xODAxMjAxODQ1NDFa
Fw0xOTAxMjAxODQ1NDFaMEwxCzAJBgNVBAYTAkJFMQ4wDAYDVQQIEwVMaWVnZTEN
MAsGA1UEChMESEVQTDENMAsGA1UECxMESEVQTDEPMA0GA1UEAxMGTW9yZ2FuMIIB
IjANBgkqhkiG9w0BAQEFAAOCAQ8AMIIBCgKCAQEAg9DPvMs1aKtoRhNDdr5w5a3N
0g28iW3Q1KKyZq8yUxr0/swOyuDAMMdKPkYwXAgeym1wmR4kaPZwTdoa3GdOiaS1
uDhgn9VBum/K+HPnAwU1A4xu4ooY/ufVgTODNv9ShzRyH3CdDUYe/MF7VPOBoN4n
B/zxNwTEiFCWNkpS69692I7R9etpcEOhL1t0/HJlALfuwdBpw8WjMQtcwxICZxjp
w1cbLJI2ZPHOrrXZrbFdfuvtWs1scFHhRm1uvQxT2PTzP92+EoSSYYt0FPehOKXH
ddIZAR19YV0CJRK4c5pKRc6K+0ZbL6U5MlAI08ErNjFymTsuFOXLkqHqNnVaHwID
AQABo4HkMIHhMAkGA1UdEwQCMAAwLAYJYIZIAYb4QgENBB8WHU9wZW5TU0wgR2Vu
ZXJhdGVkIENlcnRpZmljYXRlMB0GA1UdDgQWBBTKn0fgAgdJCx/UsvWW0RfozM6/
3zCBhgYDVR0jBH8wfYAUoqpcNuw4Z10HgdN2uHZ0YCpwuTehYqRgMF4xCzAJBgNV
BAYTAkJFMQ4wDAYDVQQIEwVMaWVnZTEQMA4GA1UEBxMHU2VyYWluZzENMAsGA1UE
ChMESEVQTDENMAsGA1UECxMESEVQTDEPMA0GA1UEAxMGTW9yZ2FuggEAMA0GCSqG
SIb3DQEBBAUAA4IBAQBR/WcKdHSEM0P8R8Z/eVsKUB8rRGWzTxTc8f09+B2dgjXL
z5e5jRSeN7mhYB26CVgD7AKTsdvp2q/AkcK+uqfVY3HLwA6/rY7BDFXFthxHRiFK
Mb7weKcEaimMUN+RTixVFK1MxWLuqaxW7jDTW0JEvSoglrl/1yNHiiw0suwyUGFr
lqE2+81lZsS2sT9gls2y/Drvaj9yFaq3HsCFqZHvrbEGkBakKCgjo0v5khoXfmhB
D6Cffg9WG01LEZJNgSjFK6+e3abt6w/Re3MWhhJGVQv0oqG67UrWd1iU2QuusU3v
eNzoiZb/pnvCtJ5+Is6Rn7Nfeqmi31H6p+qEAsKy
-----END CERTIFICATE-----
